target datalayout = "e-m:e-p270:32:32-p271:32:32-p272:64:64-i64:64-i128:128-f80:128-n8:16:32:64-S128"
target triple = "x86_64-pc-linux-gnu"

%"struct.ozz::math::Float3" = type { float, float, float }
%"struct.ozz::animation::offline::(anonymous namespace)::SortingKey.52" = type { i16, float, %"struct.ozz::animation::offline::RawAnimation::ScaleKey" }
%"struct.ozz::animation::offline::RawAnimation::ScaleKey" = type { float, %"struct.ozz::math::Float3" }

; Function Attrs: mustprogress nounwind uwtable
define internal noundef zeroext i1 @_ZN3ozz9animation7offline12_GLOBAL__N_114SortingKeyLessINS2_10SortingKeyINS1_12RawAnimation8ScaleKeyEEEEEbRKT_SA_(ptr noundef nonnull align 4 dereferenceable(24) %0, ptr noundef nonnull align 4 dereferenceable(24) %1) #2 {
  %3 = alloca ptr, align 8
  %4 = alloca ptr, align 8
  %5 = alloca float, align 4
  store ptr %0, ptr %3, align 8
  store ptr %1, ptr %4, align 8
  %6 = load ptr, ptr %3, align 8
  %7 = getelementptr inbounds %"struct.ozz::animation::offline::(anonymous namespace)::SortingKey.52", ptr %6, i32 0, i32 1
  %8 = load float, ptr %7, align 4
  %9 = load ptr, ptr %4, align 8
  %10 = getelementptr inbounds %"struct.ozz::animation::offline::(anonymous namespace)::SortingKey.52", ptr %9, i32 0, i32 1
  %11 = load float, ptr %10, align 4
  %12 = fsub float %8, %11
  store float %12, ptr %5, align 4
  %13 = load float, ptr %5, align 4
  %14 = fcmp olt float %13, 0.000000e+00
  br i1 %14, label %30, label %15

15:                                               ; preds = %2
  %16 = load float, ptr %5, align 4
  %17 = fcmp oeq float %16, 0.000000e+00
  br i1 %17, label %18, label %28

18:                                               ; preds = %15
  %19 = load ptr, ptr %3, align 8
  %20 = getelementptr inbounds %"struct.ozz::animation::offline::(anonymous namespace)::SortingKey.52", ptr %19, i32 0, i32 0
  %21 = load i16, ptr %20, align 4
  %22 = zext i16 %21 to i32
  %23 = load ptr, ptr %4, align 8
  %24 = getelementptr inbounds %"struct.ozz::animation::offline::(anonymous namespace)::SortingKey.52", ptr %23, i32 0, i32 0
  %25 = load i16, ptr %24, align 4
  %26 = zext i16 %25 to i32
  %27 = icmp slt i32 %22, %26
  br label %28

28:                                               ; preds = %18, %15
  %29 = phi i1 [ false, %15 ], [ %27, %18 ]
  br label %30

30:                                               ; preds = %28, %2
  %31 = phi i1 [ true, %2 ], [ %29, %28 ]
  ret i1 %31
}