; Function Attrs: mustprogress nofree norecurse nosync nounwind willreturn memory(argmem: read) uwtable
define internal noundef zeroext i1 @_ZN3ozz9animation7offline12_GLOBAL__N_114SortingKeyLessINS2_10SortingKeyINS1_12RawAnimation8ScaleKeyEEEEEbRKT_SA_(ptr nocapture noundef nonnull readonly align 4 dereferenceable(24) %0, ptr nocapture noundef nonnull readonly align 4 dereferenceable(24) %1) #2 {
  %3 = getelementptr inbounds i8, ptr %0, i64 4
  %4 = load float, ptr %3, align 4
  %5 = getelementptr inbounds i8, ptr %1, i64 4
  %6 = load float, ptr %5, align 4
  %7 = fsub float %4, %6
  %8 = fcmp olt float %7, 0.000000e+00
  br i1 %8, label %15, label %9

9:                                                ; preds = %2
  %10 = fcmp oeq float %7, 0.000000e+00
  br i1 %10, label %11, label %15

11:                                               ; preds = %9
  %12 = load i16, ptr %0, align 4
  %13 = load i16, ptr %1, align 4
  %14 = icmp ult i16 %12, %13
  br label %15

15:                                               ; preds = %9, %11, %2
  %16 = phi i1 [ true, %2 ], [ false, %9 ], [ %14, %11 ]
  ret i1 %16
}